ccopy_reg
_reconstructor
p0
(cbblib
CyclicArray
p1
c__builtin__
object
p2
Ntp3
Rp4
(dp5
S'count'
p6
I163
sS'add_lock'
p7
I00
sS'array_length'
p8
I300
sS'inc_lock'
p9
I01
sS'l'
p10
(lp11
I520321713687388160
aI520332034519367680
aI520332885640089600
aI520347262036086784
aI520347276967813121
aI520359169774219265
aI520359807555883009
aI520364435022442496
aI520408152991215616
aI520408805176532992
aI520416239659663360
aI520421091097845761
aI520421916457177088
aI520444116480819200
aI520456523873787904
aI520456726957793280
aI520470812873490432
aI520483880537948160
aI520486685881032704
aI520497836463759360
aI520512739039404032
aI520534061295480832
aI520535493000568832
aI520536055011766273
aI520536705867448320
aI520537508179087361
aI520543671922733056
aI520548688708763648
aI520549520854503424
aI520550721868300288
aI520559470351753216
aI520560357920620544
aI520560492469694464
aI520560650615939073
aI520560715917058049
aI520562874167861248
aI520563711485157376
aI520584167944228864
aI520584350270640128
aI520585754863747073
aI520587194118184961
aI520590447073587200
aI520593456826433536
aI520594446614667264
aI520597173650862081
aI520597761214148608
aI520602960204939264
aI520606162744791040
aI520610636485898240
aI520622020787048449
aI520624900751769600
aI520630266315145216
aI520634443338625024
aI520636192396967936
aI520646276896268288
aI520650639035334656
aI520658687426174976
aI520659399854292994
aI520679880951103488
aI520680177320624128
aI520680209066889216
aI520689369834065920
aI520699123151167488
aI520708891244384256
aI520713680841744385
aI520716657786761216
aI520720126119653376
aI520728733725257728
aI520736338564624384
aI520736846712954880
aI520737565037854721
aI520739083791106048
aI520750504784461824
aI520751425836826625
aI520752670919774208
aI520756727097348096
aI520760948731445249
aI520764670094102528
aI520764687806660610
aI520779774847770625
aI520793526762606592
aI520795176781242368
aI520809484189306880
aI520815118175993856
aI520828952844460032
aI520845371342589952
aI520852538502156288
aI520864141398278144
aI520866181348339712
aI520873288202223616
aI520891756519641088
aI520896337743994881
aI520896787306283009
aI520902905713283072
aI520907704945344512
aI520914013366915073
aI520914281231949824
aI520917102132465664
aI520920636579790848
aI520922772793729024
aI520923101404884993
aI520924084491026432
aI520927865366654976
aI520933217646690304
aI520945177444487168
aI520947552091271168
aI520948263982497792
aI520971357756985345
aI520972256638283777
aI520975704221949953
aI520975910271725568
aI520980700078809088
aI520985961648230400
aI520989774312914944
aI520998308785831936
aI521003094352486401
aI521007124076183552
aI521014937641308160
aI521015740485603328
aI521021699811057664
aI521022162246049792
aI521034113000955904
aI521034757405044736
aI521041565893271552
aI521043610423541760
aI521043961881034752
aI521046733124812801
aI521047418893520897
aI521047831466221571
aI521049719272144896
aI521057660859604994
aI521063494788325377
aI521068179989479424
aI521068999400890368
aI521073788830896128
aI521080372881149952
aI521084769048985601
aI521088855819436032
aI521098734843621377
aI521099902987034625
aI521100466756001793
aI521133158579056640
aI521148055752835072
aI521171509193105409
aI521188757060722688
aI521209580915679232
aI521209715054104576
aI521218822951673856
aI521231697967583232
aI521239891322359809
aI521251632332304385
aI521251898960011264
aI521263823924510720
aI521267771125288960
aI521297050478989312
aI521329455592390656
aI521351844787154944
aI521357801323782144
aI521359457138118656
aI521361320357027840
aI521363459074965504
aI521365167825641472
aI521366345665875968
aI517779579461980160
aI517782472856072193
aI517785120967626752
aI517967004594995201
aI517976184811188224
aI518086925065154560
aI518089962302877696
aI518091650837393408
aI518097699250642944
aI518105463117070336
aI518113259799740416
aI518200167879933952
aI518225540461764609
aI518234056946114560
aI518261243904151552
aI518313775884414977
aI518327301814366209
aI518343514015268865
aI518346456739364865
aI518385297147834368
aI518388209978724352
aI518393846317600769
aI518398643616096256
aI518399020507889664
aI518404025151389696
aI518445449695735808
aI518446664693334016
aI518453119588790272
aI518456827986841600
aI518465240317431808
aI518466804763488256
aI518480866582859776
aI518502749974315009
aI518531012163563520
aI518546503183659008
aI518547465667354624
aI518569827372650496
aI518572588227117056
aI518579014823206912
aI518598831080873984
aI518643150785896448
aI518683889561513984
aI518706898355253248
aI518712007529603072
aI518716220364050432
aI518737514170171392
aI518756548919963648
aI518762693344632832
aI518791021585793026
aI518807420697870336
aI518823652964704256
aI518840579166580736
aI518843461215453186
aI518868929440391169
aI518869132729520130
aI518871349096644609
aI518893394811437057
aI518898470909120512
aI518922842394857472
aI518927122199752705
aI518951726242484226
aI519007831329370112
aI519019230394871808
aI519034846531031040
aI519036091966693376
aI519062085972398080
aI519066470299750400
aI519068882397827072
aI519088441955745792
aI519098383563522048
aI519108610040012800
aI519121293460115456
aI519124926297833473
aI519132551903207424
aI519136503080185857
aI519151447712489473
aI519477322534359040
aI519488319747796993
aI519489889940037632
aI519498097152778240
aI519498734934454272
aI519503971346432001
aI519506604509917184
aI519515768011378688
aI519916797198626816
aI519917647107198976
aI519919342301880320
aI519923213552594945
aI519927232010407937
aI519927822358708226
aI519933713992282113
aI519933772553531392
aI519935879725715457
aI519968773260853248
aI519976491077992448
aI519980557984628736
aI520007618887045121
aI520014298517897217
aI520024500935876608
aI520095702702383104
aI520120122732994560
aI520121492705918977
aI520124386079412224
aI520129179053195264
aI520147963847245824
aI520162482959441920
aI520163589576220672
aI520169480228720642
aI520175103037173760
aI520197248442204160
aI520198942068195328
aI520200623586037760
aI520202021144915968
aI520202932570972162
aI520207379934089216
aI520209819161329664
aI520211364363526145
aI520212203794735104
aI520213653069762560
aI520214838702657536
aI520228072872624128
aI520231413447397377
aI520234663588417536
aI520236865358536705
aI520252096403087361
aI520254156548747265
aI520272487243087872
aI520272530473357312
aI520283668971913217
aI520285590458101760
aI520298320171130880
aI520298477994008576
aI520306052622221312
aI520306090500960256
aI520312560038715392
aI520312827634917377
aI520320809739747328
asb.