ccopy_reg
_reconstructor
p0
(cbblib
CyclicArray
p1
c__builtin__
object
p2
Ntp3
Rp4
(dp5
S'count'
p6
I205
sS'add_lock'
p7
I00
sS'array_length'
p8
I300
sS'inc_lock'
p9
I01
sS'l'
p10
(lp11
L504221047294820352L
aL504255998371299328L
aL504314623659479040L
aL504333722603499520L
aL504357622175526912L
aL504372761473867776L
aL504873276154212353L
aL504906840397070336L
aL504918960513748992L
aL505258467083313153L
aL505271665962803203L
aL505278530557460480L
aL505342170464002048L
aL505349962746433537L
aL505354273149169665L
aL505361008786145280L
aL505377889223974912L
aL505386323457241088L
aL505429709795368960L
aL505475297584893952L
aL505482156995801090L
aL505485101657251840L
aL505495026256715776L
aL505496414424932352L
aL505498417087655938L
aL505637390778523648L
aL505665504586248192L
aL505710194483933184L
aL505793360352018432L
aL505798604158935041L
aL505798616607641600L
aL505989408936722434L
aL506053265079803904L
aL506053622615273472L
aL506053623764492289L
aL506054184089559040L
aL506054194319470592L
aL506054216171798528L
aL506054251249156097L
aL506055515844390913L
aL506055709646389248L
aL506056213079937025L
aL506056589095493633L
aL506056690505351168L
aL506056713108475904L
aL506056808322961408L
aL506056969052880896L
aL506057079799685120L
aL506057152348184576L
aL506057204072738816L
aL506057205523963904L
aL506057232866611200L
aL506057307529412608L
aL506057830018084864L
aL506057936595320832L
aL506058168078573568L
aL506058212601507840L
aL506058357426642945L
aL506058399889780736L
aL506058813170909184L
aL506058849879470080L
aL506058891545677824L
aL506059106486996993L
aL506059751370002432L
aL506060766324486144L
aL506062227078909952L
aL506062823047593984L
aL506062858007097344L
aL506065257966895104L
aL506065274890903552L
aL506065287754416128L
aL506065295036137472L
aL506065775736934400L
aL506065778227957762L
aL506065792345989121L
aL506065803725111296L
aL506065809543004160L
aL506066203606261760L
aL506066210237472768L
aL506066498713296896L
aL506066522335219712L
aL506066531449835520L
aL506066532829773824L
aL506066891874369536L
aL506066922610245632L
aL506067204627251200L
aL506067216765186048L
aL506067217499172864L
aL506067534110408704L
aL506067558353887232L
aL506067581732528128L
aL506067871450288128L
aL506067896024719360L
aL506067903654166528L
aL506067906837241856L
aL506067928723521536L
aL506068329627680769L
aL506068353589317632L
aL506068783824633856L
aL506068810445488130L
aL506069193804894209L
aL506069417718185984L
aL506069697084026880L
aL506069965955272704L
aL506070174680616960L
aL506070179462131714L
aL506070507406753792L
aL506070772045991936L
aL506071061847609344L
aL506071079904100352L
aL506071342534656000L
aL506071590031724544L
aL506071593563324416L
aL506071609841434624L
aL506071886766149632L
aL506071911852703744L
aL506071915778560002L
aL506071921126309888L
aL506072304053665792L
aL506072318788263936L
aL506072560317239297L
aL506072595574185984L
aL506072599085191168L
aI517426241495105537
aI517426326975033344
aI517434521151889408
aI517434790401024000
aI517436085631483904
aI517438271941804032
aI517438732870623232
aI517442406422421504
aI517478249723478016
aI517485390895529984
aI517507452145659904
aI517523407051956224
aI517531136332156928
aI517549269100658688
aI517570228570828800
aI517592586174074881
aI517605737372319745
aI517617901663043585
aI517625262788579328
aI517626679116587009
aI517641425542848515
aI517659333098631168
aI517659392099897345
aI517660274871259136
aI517660304650403840
aI517669557612204032
aI517672831174578176
aI517685905738719233
aI517688040513605633
aI517691163349098496
aI517696053739790336
aI517702523797639168
aI517704507632128001
aI517706953683128320
aI517721373767000065
aI517721467442962432
aI517727049876652032
aI517737846170730496
aI517756305013231617
aI517766042672562176
aI517779579461980160
aI517782472856072193
aI517785120967626752
aI517967004594995201
aI517976184811188224
aI518086925065154560
aI518089962302877696
aI518091650837393408
aI518097699250642944
aI518105463117070336
aI518113259799740416
aI518200167879933952
aI518225540461764609
aI518234056946114560
aI518261243904151552
aI518313775884414977
aI518327301814366209
aI518343514015268865
aI518346456739364865
aI518385297147834368
aI518388209978724352
aI518393846317600769
aI518398643616096256
aI518399020507889664
aI518404025151389696
aI518445449695735808
aI518446664693334016
aI518453119588790272
aI518456827986841600
aI518465240317431808
aI518466804763488256
aI518480866582859776
aI518502749974315009
aI518531012163563520
aI518546503183659008
aI518547465667354624
aI518569827372650496
aI518572588227117056
aI518579014823206912
aI518598831080873984
aI518643150785896448
aI518683889561513984
aL482508163778748419L
aL482509124127981568L
aL483341759746146304L
aL483342609062965249L
aL483342625035259904L
aL483343004321992704L
aL487970923832958976L
aL487971601275953152L
aL487975989289295872L
aL487976587028336640L
aL487977965137846273L
aL487980476666114049L
aL487992349146882048L
aL488011826823954432L
aL488014420291772416L
aL488028594015186945L
aL488032453341093888L
aL488042462238085120L
aL488064845049524225L
aL488100398163451904L
aL488104940313653249L
aL488109049930469377L
aL488135574810001410L
aL488138046127476736L
aL488144270474244096L
aL488153365785096192L
aL488172374156926976L
aL488172379156131840L
aL488183882328461314L
aL488183882932441088L
aL488193610534236161L
aL488194739888328704L
aL498936723876085760L
aL498951728499544064L
aL499000275332775937L
aL499090926531510272L
aL499099889809125377L
aL499171154591223808L
aL499204768691400704L
aL499213582664749056L
aL499235551141429248L
aL499280802350649344L
aL499306600491155456L
aL499346212571860993L
aL499347246656524288L
aL499348609553694720L
aL499464659788107776L
aL499526200004341761L
aL499599574445457410L
aL499632800874917889L
aL500155912938864640L
aL500191322636951553L
aL500261953181581313L
aL502188468944904193L
aL502217797493989376L
aL502331983972691968L
aL502440146495881216L
aL502474126456791040L
aL502501971052740609L
aL502544505372180482L
aL502567116252647425L
aL502572017217196032L
aL502622291445170176L
aL502648717904973824L
aL502648764239462401L
aL502722267261190144L
aL502749028191174656L
aL502765610267181056L
aL502767897723154432L
aL502806140733116418L
aL502818887767842816L
aL502840856161054720L
aL502862583784030208L
aL502908084759433216L
aL502966198900781057L
aL503259808242614272L
aL503531037755211778L
aL503550414168805376L
aL503624180097499136L
aL503844397319204864L
aL503880470988611584L
aL503883630817861632L
aL503889730644082688L
aL503890618805125121L
aL503920453975437312L
aL503935480350900224L
aL503935485321183232L
aL503947980001800192L
aL503950745847480320L
aL503983107805286400L
aL503995232367566848L
aL504073678573694976L
aL504177004867244033L
aL504187317892812800L
aL504208787314450432L
asb.