ccopy_reg
_reconstructor
p0
(cbblib
CyclicArray
p1
c__builtin__
object
p2
Ntp3
Rp4
(dp5
S'count'
p6
I32
sS'add_lock'
p7
I00
sS'array_length'
p8
I300
sS'inc_lock'
p9
I01
sS'l'
p10
(lp11
I518113268297379840
aI518200175966568449
aI518225548276158465
aI518234064814632960
aI518261252955832320
aI518313783706808320
aI518327309431218176
aI518343522492358656
aI518346471432011776
aI518385304886345728
aI518388217696256000
aI518393854828240896
aI518398651367186432
aI518399028741275648
aI518404032948609025
aI518445458474409984
aI518446672524087296
aI518453127704764416
aI518456836052512768
aI518465251415953410
aI518466813324431360
aI518480874984472576
aI518502758228692992
aI518531020615073792
aI518546510808883200
aI518547474316009473
aI518569835551547392
aI518572596355694592
aI518579023665172480
aI518598839323095040
aI518643159015112704
aI518683897467781121
aL480695224671686656L
aL480695751967002624L
aL480696742997155840L
aL480700797333041152L
aL480701665306505217L
aL480703530752548864L
aL480704246695100416L
aL480705072809377793L
aL480710558048862208L
aL480717963532972032L
aL480723370410258432L
aL480723453998538753L
aL480723979234476032L
aL480725918701608960L
aL480728824582537216L
aL480732355452473345L
aL480733787182346240L
aL480738652721803264L
aL480740013970567169L
aL480740904756842497L
aL480797954916499456L
aL480807346495840257L
aL480807667951501312L
aL480813938368872448L
aL480815845103665155L
aL480818205695705088L
aL480818639344779265L
aL480819046485852160L
aL480821274189791232L
aL481167286972452864L
aL481171636025294849L
aL481171745387577344L
aL481172999060869120L
aL481187315289956353L
aL481191557933326336L
aL481191668012814336L
aL481195149113176064L
aL481195352645959680L
aL481196166458380288L
aL481196483182882816L
aL481196792055611393L
aL481197076337139713L
aL481201070145028096L
aL481201840600907776L
aL481204403123523584L
aL481206605649043456L
aL481211664487165952L
aL481211981568167936L
aL481212221083885570L
aL481215115917008896L
aL481218388728217600L
aL481221702480035840L
aL481226622100852736L
aL481227027681669120L
aL481227654348419073L
aL481229712816353280L
aL481231086518018048L
aL481231215861964801L
aL481235519867981824L
aL481236350319210496L
aL481236568754384896L
aL481240401773596673L
aL481242587534483458L
aL481244909912195072L
aL481255219817619456L
aL481255527180406785L
aL481260670609268736L
aL481268035249258496L
aL481271379132960768L
aL481271460804444160L
aL481272614284169217L
aL481272696043737088L
aL481274401972031488L
aL481283147750195200L
aL481287484505358336L
aL481287570379509760L
aL481288704200568833L
aL481297748298588160L
aL481298205628710912L
aL481299595327471616L
aL481300605399752704L
aL481302788241358848L
aL481303723378229248L
aL481304045307838464L
aL481304196130832384L
aL481304292805345280L
aL481305167288336384L
aL481308198352474112L
aL481310121583476736L
aL481314081107107842L
aL481320281034981376L
aL481321089344475136L
aL481322028843405312L
aL481329562107011072L
aL481874559768215552L
aL481875121016406016L
aL481875362352496640L
aL481876107537682432L
aL481876411394039808L
aL481876632089927680L
aL481877036399853568L
aL481877257490010112L
aL481878511532388354L
aL481878915544535040L
aL481879699510284288L
aL481884713305788416L
aL481885892358209536L
aL481886270751526913L
aL481886760088403968L
aL481887610181525505L
aL481888525550637057L
aL481888647621668865L
aL481889119778635776L
aL481889891148910593L
aL481891270575796224L
aL481891366587617280L
aL481891998446911488L
aL481892822111768576L
aL481893724046499841L
aL481895002877222912L
aL481895150550269952L
aL481895254833262592L
aL481895648334462976L
aL481897384289767424L
aL481898694099628033L
aL481898890124619776L
aL481902194598629376L
aL481902324454277122L
aL481903794587189248L
aL481904780823232512L
aL481904963439034368L
aL481906092503752704L
aL481906970379960320L
aL481910616559714304L
aL481911461183512576L
aL481911992148832256L
aL481916329369563137L
aL481918045930393600L
aL481919878421807105L
aL481920256257298432L
aL481924132742111232L
aL481924226853896192L
aL481927576328601600L
aL481928084116242432L
aL481929000181571584L
aL481929955384000512L
aL481937436894064640L
aL481941102480850944L
aL481941232537841664L
aL481943750814744576L
aL481948699619508224L
aL481948794092015616L
aL481950665552723968L
aL481957993383489537L
aL481962269900029952L
aL481965307377254400L
aL481965640547569664L
aL481965833397501952L
aL481968961974988800L
aL481969461487214592L
aL481976096163102720L
aL481981105391013888L
aL481981698100695041L
aL481981792522887169L
aL481986677259653120L
aL481987329125793792L
aL482261046045204481L
aL482262677159706625L
aL482263090315403264L
aL482264254280916992L
aL482504264783515648L
aL482508176408195072L
aL482508304649056257L
aL482509151474835457L
aL483341829761675264L
aL483342679087267842L
aL483342753280315392L
aL483343031471714304L
aL488042467569467392L
aL488194745827864576L
aL499306669365821441L
aL505361058866147328L
aL506054234178338816L
aL506054292424630272L
aL506056775423262720L
aL506057400630403073L
aL506058407452098560L
aL506062908250673153L
aL506063032427229184L
aL506065360421138432L
aL506065441534783488L
aL506065530303037440L
aL506065596564660224L
aL506065874328256512L
aL506066051252359169L
aL506066125437030401L
aL506066371437162496L
aL506066622713696256L
aL506066715080671232L
aL506066821867638784L
aL506067006492528640L
aL506067101334142977L
aL506067300311896064L
aL506067418117328896L
aL506068035514667010L
aL506068089877053441L
aL506068192645894144L
aL506068446745214976L
aL506068887205838848L
aL506068998597791745L
aL506069290240712705L
aL506069533766201344L
aL506069799940931584L
aL509490784929079296L
aL509523714757906433L
aI517426248868700160
aI517426334638026753
aI517434528705839104
aI517434798663794688
aI517436093181231104
aI517438280510767104
aI517438294733627392
aI517438740160339968
aI517442413707943936
aI517478257353326593
aI517485398948610049
aI517507459729334274
aI517523414522023936
aI517531143529578496
aI517549277472911361
aI517570237072695296
aI517592594432667648
aI517605745618337792
aI517617909519376384
aI517625273102385152
aI517626687706902529
aI517641433910894593
aI517659341533745152
aI517659400652476416
aI517660283389894656
aI517660313974734848
aI517669565955051520
aI517672839617736704
aI517685914118946816
aI517688049405550592
aI517691171897114624
aI517694584005353472
aI517696062476521473
aI517702532639236096
aI517704516154978304
aI517706982921613312
aI517721383531732992
aI517721475923841024
aI517723505417523200
aI517727058848665600
aI517737854337028097
aI517756313653497857
aI517766050482782208
aI517779587426942976
aI517782481270214656
aI517785129457307648
aI517967012749131776
aI517976193451425794
aI518086935928381440
aI518089969374859264
aI518091658966343680
aI518097712475308033
aI518105470817804288
asb.