ccopy_reg
_reconstructor
p0
(cbblib
CyclicArray
p1
c__builtin__
object
p2
Ntp3
Rp4
(dp5
S'count'
p6
I292
sS'add_lock'
p7
I00
sS'array_length'
p8
I300
sS'inc_lock'
p9
I01
sS'l'
p10
(lp11
I518113268297379840
aI518200175966568449
aI518225548276158465
aI518234064814632960
aI518261252955832320
aI518313783706808320
aI518327309431218176
aI518343522492358656
aI518346471432011776
aI518385304886345728
aI518388217696256000
aI518393854828240896
aI518398651367186432
aI518399028741275648
aI518404032948609025
aI518445458474409984
aI518446672524087296
aI518453127704764416
aI518456836052512768
aI518465251415953410
aI518466813324431360
aI518480874984472576
aI518502758228692992
aI518531020615073792
aI518546510808883200
aI518547474316009473
aI518569835551547392
aI518572596355694592
aI518579023665172480
aI518598839323095040
aI518643159015112704
aI518683897467781121
aI518706906786172928
aI518712016123723776
aI518716228547141632
aI518737522449739777
aI518756557199540224
aI518762703289323521
aI518791029865320448
aI518807431519174656
aI518823661877608449
aI518840587743940609
aI518843469427916800
aI518868937212461056
aI518869140954955776
aI518871357053222915
aI518893402470227969
aI518898479134150656
aI518922850904727552
aI518927130382827520
aI518951735092850688
aI519007839030104064
aI519019238510825472
aI519034854156288000
aI519036099642290176
aI519062094009102336
aI519066479585947648
aI519068890643857408
aI519082240677253120
aI519088450226900992
aI519098391759171585
aI519108618244075520
aI519121301399957505
aI519124933910474752
aI519132560161787905
aI519136521660936192
aI519151455673262082
aI519477331329822721
aI519488327876378624
aI519489898223763456
aI519498105679802368
aI519498745642516480
aI519503979869646848
aI519506614530088960
aI519515776060227585
aI519916804379250689
aI519917658863841280
aI519919349541650432
aI519923220682915840
aI519927238998102016
aI519927829925232640
aI519933721726971904
aI519933780484956160
aI519935886814113792
aI519968780429312001
aI519976498955309057
aI519980564821336065
aI520007625946464256
aI520014305304268800
aI520024507982286848
aI520034936905289728
aI520095710910640128
aI520120130416963585
aI520121500268244992
aI520124393989885952
aI520129186913345536
aI520147971565166593
aI520162491171479552
aI520163597310504960
aI520169487698755585
aI520175110503030784
aI520197255736066048
aI520198949735759873
aI520200631014158336
aI520202028703055872
aI520202940469239808
aI520207387916259328
aI520209826673336321
aI520211371817189376
aI520212212515110912
aI520213660883775489
aI520214846517018625
aI520228080582164480
aI520231420766482432
aI520234671234637824
aI520236874632552448
aI520252104917925889
aI520254165885681665
aI520272499188436992
aI520272538451316736
aI520283676668882945
aI520285599027429376
aI520298329260179457
aI520298487754530816
aI520306060507500545
aI520306098256224256
aI520312567773007872
aI520312835264745472
aI520320817352441856
aI520321721384321024
aI520332042182352896
aI520332893122727936
aI520347270546718720
aI520347285323280385
aI520359177735385090
aI520359815345094656
aI520408159970926592
aI520408812772421632
aI520416246849081344
aI520421099373613056
aI520421924359634944
aI520444123174957056
aI520456531297722368
aI520456734360743936
aI520470819584344064
aI520483887777345537
aI520486694144184320
aI520497843128504321
aI520512745989734400
aI520534068585562112
aI520535501296898048
aI520536062540910592
aI520536713509482496
aI520537515040964608
aI520543679388590080
aI520548695532924928
aI520549528857247744
aI520550729288011777
aI520555079871762432
aI520559478224470016
aI520560365055516672
aI520560500011438080
aI520560662536536064
aI520560724264095744
aI520562881839251456
aI520563718946844672
aI520584175628587008
aI520584357929816066
aI520585762795171840
aI520587201907003392
aI520590454669475840
aI520593464246161408
aI520597182358224896
aI520597768839397376
aI520602972888518656
aI520606173528326144
aI520610643800760320
aI520622029046042625
aI520624908205043713
aI520630278851923968
aI520634451903381504
aI520636202698174464
aI520646285213597696
aI520650647436529664
aI520658696545005568
aI520659407823441922
aI520679889184522240
aI520680186111856640
aI520680217359437824
aI520689377811660800
aI520699146727350272
aI520708900111527937
aI520713689562087425
aI520716666712641536
aI520720134487683072
aI520728741786701824
aI520736346688978944
aI520736855281893377
aI520737573212549120
aI520739091877744640
aI520750513516974081
aI520751434099605504
aI520752679203897344
aI520756735188144128
aI520760956813848577
aI520764678843404288
aI520764696757288960
aI520779783144493056
aI520793535243911168
aI520795184750428160
aI520809492452507648
aI520815126203871232
aI520828966895362048
aI520845379139817472
aI520852546479742976
aI520864148549554176
aI520866189367865344
aI520873296859258880
aI520891764803379200
aI520896345809625088
aI520896795388686337
aI520902913439571968
aI520907713258479616
aI520914021986611200
aI520914289591590912
aI520917110688874496
aI520920644750684162
aI520922794054672384
aI520923109730570240
aI520924092984459264
aI520927873839153152
aI520933225519403008
aI520945185258500096
aI520947559754633216
aI520948272647909376
aI520971381006417920
aI520972264981159936
aI520975712887799809
aI520975918471589889
aI520980710510039040
aI520985969856901120
aI520989803186495488
aI520998317199990784
aI521003102263328768
aI521007132414865408
aI521014947183357952
aI521015748886822912
aI521021708145545216
aI521022171196719104
aI521034120588455936
aI521034765290717184
aI521041574768427008
aI521043617939742720
aI521043969757937664
aI521046740993310721
aI521047427403776001
aI521047839561224192
aI521049727451037696
aI521057669055270913
aI521063502304518145
aI521068188327739392
aI521069007555031040
aI521073796984635392
aI521080381387599872
aI521084777487925248
aI521088863822163968
aI521098743400398848
aI521099911128178688
aI521100475455008768
aI521133166887960578
aI521148063172530176
aI521171517909254144
aI521188765227028480
aI521189542679027712
aI521209589287903232
aI521209722641600512
aI521218831117987840
aI521231705718677504
aI521239898884702208
aI521251640809365504
aI521251907189628929
aI521263831969202177
aI521267779077668864
aI521297058159136769
aI521329463842570240
aI521351852999589888
aI521357809762725889
aI521359465661333504
aI521361329433874433
aI521363468495384576
aI521365175614844930
aI521366354327535616
aI517785129457307648
aI517967012749131776
aI517976193451425794
aI518086935928381440
aI518089969374859264
aI518091658966343680
aI518097712475308033
aI518105470817804288
asb.